(dp1
S'output'
p2
S"<type 'exceptions.SyntaxError'> invalid select attribute: next"
p3
sS'layer'
p4
S'/home/anam786/itws/project/web2py/applications/Task1/controllers/default.py'
p5
sS'code'
p6
S'# -*- coding: utf-8 -*-\n# this file is released under public domain and you can use without limitations\nimport datetime\n#########################################################################\n## This is a sample controller\n## - index is the default action of any application\n## - user is required for authentication and authorization\n## - download is for downloading files uploaded in the db (does streaming)\n#########################################################################\ndef index():\n    """\n    example action using the internationalization operator T and flash\n    rendered by views/default/index.html or views/generic.html\n\n    if you need a simple wiki simply replace the two lines below with:\n    return auth.wiki()\n    """\n    auth.settings.login_next=URL(\'incomplete\')\n    return dict(form=auth())\ndef show1():\n    data = request.args(0,cast=int)\n    rows = db(db.upload.id==data).select()\n    po = db(db.upload.id==data).select().first()\n    que=str(po.Date_of_Upload)\n    db.post.upload.default = data\n    db.post.created_on.default = request.now.date()\n    db.post.created_by.default = auth.user.username\n    form = SQLFORM(db.post).process() if auth.user else None\n    comments = db(db.post).select(next=\'show1/[data]\')\n    return dict(form=form, comments=comments, data=data, rows=rows)\n  \n@auth.requires_login()\ndef edit():\n    if(auth.user==None):\n        session.flash=("Please Login First")\n    data=request.args(0,cast=int)\n    form=SQLFORM(db.upload,data,deletable=True).process(next=\'show1/[data]\')\n    form.element(\'textarea[name=Task]\')[\'_style\']= \'font-size:20px;width:450px;height:60px;\'\n    form.element(\'textarea[name=Description]\')[\'_style\']= \'font-size:20px;width:450px;height:60px;\'\n    if form.process().accepted:\n\t\tresponse.flash = \'form accepted\'\n    elif form.errors:\n\t\tresponse.flash = \'form has errors\'\n    return dict(data=data, form=form)\n@auth.requires_login()\ndef user():\n    """\n    exposes:\n    http://..../[app]/default/user/login\n    http://..../[app]/default/user/logout\n    http://..../[app]/default/user/register\n    http://..../[app]/default/user/profile\n    http://..../[app]/default/user/retrieve_password\n    http://..../[app]/default/user/change_password\n    http://..../[app]/default/user/bulk_register\n    use @auth.requires_login()\n        @auth.requires_membership(\'group name\')\n        @auth.requires_permission(\'read\',\'table name\',record_id)\n    to decorate functions that need access control\n    also notice there is http://..../[app]/appadmin/manage/auth to allow administrator to manage users\n    """\n    return dict(form=auth())\n\n\n@cache.action()\ndef download():\n    """\n    allows downloading of uploaded files\n    http://..../[app]/default/download/[filename]\n    """\n    return response.download(request, db)\n\n\ndef call():\n    """\n    exposes services. for example:\n    http://..../[app]/default/call/jsonrpc\n    decorate with @services.jsonrpc the functions to expose\n    supports xml, json, xmlrpc, jsonrpc, amfrpc, rss, csv\n    """\n    return service()\n@auth.requires_login()\ndef task():\n    if(auth.user==None):\n        session.flash=("Please Login First")\n    db.upload.complete_percent.writable= False\n    db.upload.complete_percent.readable = False\n    db.upload.status.writable = False\n    db.upload.status.readable = False\n    form=SQLFORM(db.upload)\n    form.vars.Username=auth.user.username\n    form.vars.Date_of_Upload=request.now.date()\n    form.element(\'textarea[name=Task]\')[\'_style\'] = \'font-size:20px;width:450px;height:60px;\'\n    form.element(\'textarea[name=Description]\')[\'_style\'] = \'font-size:20px;width:450px;height:60px;\'\n    ##form.element(\'textarea[name=email]\')[\'_style\'] = \'font-size:20px;width:450px;height:60px;\'\n    form.element(\'textarea[name=SubTask1]\')[\'_style\'] = \'font-size:20px;width:450px;height:60px;\'\n    form.element(\'textarea[name=SubTask2]\')[\'_style\'] = \'font-size:20px;width:450px;height:60px;\'\n    form.element(\'textarea[name=SubTask3]\')[\'_style\'] = \'font-size:20px;width:450px;height:60px;\'\n    form.element(\'textarea[name=SubTask4]\')[\'_style\'] = \'font-size:20px;width:450px;height:60px;\'\n    form.element(\'textarea[name=SubTask5]\')[\'_style\'] = \'font-size:20px;width:450px;height:60px;\'\n    form.element(\'[name=Deadline]\')[\'_style\'] = \'font-size:20px;width:450px;height:60px;\'\n\n    if form.process().accepted:\n        response.flash= \'form accepted\'\n        redirect(URL(\'emailing\'))\n    return dict(form=form)\ndef emailing():\n    mail.send(to=[auth.user.email],\n              subject=\'Task created\',\n              message=\'Your task has been created\'\n              )\n    session.flash=("email sent")\n    redirect(URL(\'incomplete\'))\n              \n@auth.requires_login()\ndef sub():\n    form=SQLFORM(db.subt).process()\n    if form.process().accepted: redirect(URL(\'task\'))\n    return locals()\n@auth.requires_login()\ndef incomplete():\n    if (auth.user==None):\n        session.flash = ("Please Login First")\n    row=db(db.upload.Username==auth.user.username).select()\n    b=request.args(0)\n    query=(db.upload.Username==auth.user.username)\n    c=db(query).count()\n    current=datetime.datetime.now()\n    if(b==None):\n        i=0\n    \n    if(b!=None):\n        i=int(b)\n        \n    if(c-i>5 and i>=0):\n        rows=db(db.upload.Username==auth.user.username).select(orderby=~db.upload.id,limitby=(i,i+5))\n    elif(i>=c):\n        if(c%5!=0):\n            i=5*int(c/5)\n        else:\n            i=15*(int(c/5)-1)\n        rows=db(db.upload.Username==auth.user.username).select(orderby=~db.upload.id,limitby=(i,c))\n    elif(i<0):\n        i=0\n        rows=db(db.upload.Username==auth.user.username).select(orderby=~db.upload.id,limitby=(0,5))\n    else:\n        rows=db(db.upload.Username==auth.user.username).select(orderby=~db.upload.id,limitby=(i,c))\n    return locals()\n    #return dict(rows=rows, c=c, i=i, b=b)\n    #return dict(rows=rows)\n\n@auth.requires_login()\ndef home():\n    if (auth.user==None):\n        session.flash = ("Please Login First")\n        \'\'\'redirect("http://127.0.0.1:8000/cooking/default/user/login")\'\'\'\n    b=request.args(0)\n    query=(db.upload.id>0)\n    c=db(query).count()\n    if (b==None):\n        i=0\n\n    if (b!=None):\n        i=int(b)\n        #c=c-3\n    if (c-i>5 and i>=0):\n        rows = db(db.upload.Username!=None).select(orderby=~db.upload.id, limitby=(i,i+5))\n    elif (i>=c):\n        if (c%5!=0):\n            i=5*int(c/5)\n        else:\n            i=5*(int(c/5)-1)\n        rows = db(db.upload.Username!=None).select(orderby=~db.upload.id, limitby=(i,c))\n    elif (i<0):\n        i=0\n        rows = db(db.upload.Username!=None).select(orderby=~db.upload.id, limitby=(0,5))\n    else:\n        rows = db(db.upload.Username!=None).select(orderby=~db.upload.id, limitby=(i,c))\n    return dict(rows=rows, c=c, i=i, b=b)\ndef update():\n    id=request.args(0,cast=int)\n    alpha=db.upload(id)\n    another=request.args(1,cast=int)\n    x=request.now<alpha.Deadline\n    if((another==auth.user.id)&(alpha.status==\'assigned\')|(alpha.status ==\'pending\')&(x==True)):\n        db.upload.howmuch.writable = True\n        db.upload.status.writable = True\n        db.upload.status.readable = True\n        db.upload.Deadline.readable = False\n        db.upload.Deadline.writable = False\n        db.upload.status.requires=IS_IN_SET((\'completed\',\'pending\'))\n        form=SQLFORM(db.upload,id,showid=False).process()\n        if form.accepted:\n            session.flash="Updated"\n            redirect(URL(\'incomplete\'))\n    else:\n            session.flash="NOT POSSIBLE"\n            redirect(URL(\'home\'))\n    return locals()\ndef search():\n     return dict(form1=FORM(INPUT(_id=\'keyword1\',_name=\'keyword1\', _onkeyup="ajax(\'callback1\', [\'keyword1\'], \'target1\');")),\ntarget_div1=DIV(_id=\'target1\'),form2=FORM(INPUT(_id=\'keyword2\',_name=\'keyword2\', _onkeyup="ajax(\'callback2\', [\'keyword2\'], \'target2\');")),target_div2=DIV(_id=\'target2\'))\n    \ndef callback():\n    if not request.vars.keyword1: return \' \'\n    query=db.upload.Task.startswith(request.vars.keyword1)\n    projects=db(query).select(orderby=db.upload.Task)\n    links=[A(p.Task,_href=URL(\'home\',args=p.id)) for p in projects]\n    return UL(*links)\ndef callback2():\n    if not request.vars.keyword2: return \' \'\n    query1=db.auth_user.firstname.startswith(request.vars.keyword2)\n    query2=db.auth_user.lastname.startswith(request.vars.keyword2)\n    q2=db.auth_user.id==db.upload.created_by\n    projects=db(((query1)&(q2))|(auery2)&(q2)).select(db.upload.ALL,orderby=db.upload.Task)\n    links=[A(p.Task,_href=URL(\'home\',args=p.id)) for p in projects]\n    return UL(*links)\n\n    \n\'\'\'def activity():\n    db.upload.Deadline.represent = lambda x,row:prettydate(x)\n    db.upload.Task.represent = lambda title,row:A(title,_href=URL(\'update\',args=[row.id, row.head.id]))\n    query=(db.upload.head == auth.user_id)\n    grid=SQLFORM.grid(query, create=False, deletable=False, editable=False, fields=[db.upload.Task,db.upload.head,db.upload.status,db.upload.Deadline])\n    return locals()\n#db.upload.Deadline.represent = lambda x,row: prettydate(x)\ndef needtodo():\n    #grid=SQLFORM.smartgrid(db.auth_user,linked_tables=[\'task\'])\n    rows=db((db.upload.status == \'assigned\')|(db.upload.status == \'pending\')).select(orderby=~db.upload.created_on)\n    return locals()\n\ndef activitytable():\n    s=db(db.upload.Username==(auth.user.first_name+auth.user.last_name)).select(db.upload.ALL)\n    current=datetime.datetime.now()\n    return locals()\'\'\'\n\nresponse._vars=response._caller(show1)\n'
p7
sS'snapshot'
p8
(dp9
S'exception'
p10
(dp11
S'__getslice__'
p12
S"<method-wrapper '__getslice__' of exceptions.SyntaxError object>"
p13
sS'text'
p14
S'None'
p15
sS'__str__'
p16
S"<method-wrapper '__str__' of exceptions.SyntaxError object>"
p17
sS'__reduce__'
p18
S'<built-in method __reduce__ of exceptions.SyntaxError object>'
p19
sS'__dict__'
p20
S'{}'
p21
sS'__sizeof__'
p22
S'<built-in method __sizeof__ of exceptions.SyntaxError object>'
p23
sS'__init__'
p24
S"<method-wrapper '__init__' of exceptions.SyntaxError object>"
p25
sS'__setattr__'
p26
S"<method-wrapper '__setattr__' of exceptions.SyntaxError object>"
p27
sS'__reduce_ex__'
p28
S'<built-in method __reduce_ex__ of exceptions.SyntaxError object>'
p29
sS'__new__'
p30
S'<built-in method __new__ of type object>'
p31
sS'__format__'
p32
S'<built-in method __format__ of exceptions.SyntaxError object>'
p33
sS'__class__'
p34
S"<type 'exceptions.SyntaxError'>"
p35
sS'filename'
p36
S'None'
p37
sS'lineno'
p38
S'None'
p39
sS'msg'
p40
S"'invalid select attribute: next'"
p41
sS'__doc__'
p42
S"'Invalid syntax.'"
p43
sS'__getitem__'
p44
S"<method-wrapper '__getitem__' of exceptions.SyntaxError object>"
p45
sS'__setstate__'
p46
S'<built-in method __setstate__ of exceptions.SyntaxError object>'
p47
sS'__getattribute__'
p48
S"<method-wrapper '__getattribute__' of exceptions.SyntaxError object>"
p49
sS'print_file_and_line'
p50
S'None'
p51
sS'args'
p52
S"('invalid select attribute: next',)"
p53
sS'__subclasshook__'
p54
S'<built-in method __subclasshook__ of type object>'
p55
sS'offset'
p56
S'None'
p57
sS'__unicode__'
p58
S'<built-in method __unicode__ of exceptions.SyntaxError object>'
p59
sS'__delattr__'
p60
S"<method-wrapper '__delattr__' of exceptions.SyntaxError object>"
p61
sS'__repr__'
p62
S"<method-wrapper '__repr__' of exceptions.SyntaxError object>"
p63
sS'__hash__'
p64
S"<method-wrapper '__hash__' of exceptions.SyntaxError object>"
p65
ssS'evalue'
p66
S'invalid select attribute: next'
p67
sS'request'
p68
cgluon.html
XML_unpickle
p69
(S's\xb5\x99\x00\x00<div><table><tr><td style="font-weight:bold;vertical-align:top;">ajax</td><td style="vertical-align:top;">:</td><td><div>False</div></td></tr><tr><td style="font-weight:bold;vertical-align:top;">application</td><td style="vertical-align:top;">:</td><td><div>Task1</div></td></tr><tr><td style="font-weight:bold;vertical-align:top;">args</td><td style="vertical-align:top;">:</td><td><div><table><tr><td><div>25</div></td></tr></table></div></td></tr><tr><td style="font-weight:bold;vertical-align:top;">cid</td><td style="vertical-align:top;">:</td><td><div>None</div></td></tr><tr><td style="font-weight:bold;vertical-align:top;">client</td><td style="vertical-align:top;">:</td><td><div>127.0.0.1</div></td></tr><tr><td style="font-weight:bold;vertical-align:top;">controller</td><td style="vertical-align:top;">:</td><td><div>default</div></td></tr><tr><td style="font-weight:bold;vertical-align:top;">cookies</td><td style="vertical-align:top;">:</td><td><div><table><tr><td style="font-weight:bold;vertical-align:top;">session_id_201516002_assignment3</td><td style="vertical-align:top;">:</td><td><div>127.0.0.1-0991d3ec-400c-4cf1-84f0-e000d1d4e0b0<table><tr><td style="font-weight:bold;vertical-align:top;">comment</td><td style="vertical-align:top;">:</td><td><div></div></td></tr><tr><td style="font-weight:bold;vertical-align:top;">domain</td><td style="vertical-align:top;">:</td><td><div></div></td></tr><tr><td style="font-weight:bold;vertical-align:top;">expires</td><td style="vertical-align:top;">:</td><td><div></div></td></tr><tr><td style="font-weight:bold;vertical-align:top;">httponly</td><td style="vertical-align:top;">:</td><td><div></div></td></tr><tr><td style="font-weight:bold;vertical-align:top;">max-age</td><td style="vertical-align:top;">:</td><td><div></div></td></tr><tr><td style="font-weight:bold;vertical-align:top;">path</td><td style="vertical-align:top;">:</td><td><div></div></td></tr><tr><td style="font-weight:bold;vertical-align:top;">secure</td><td style="vertical-align:top;">:</td><td><div></div></td></tr><tr><td style="font-weight:bold;vertical-align:top;">version</td><td style="vertical-align:top;">:</td><td><div></div></td></tr></table></div></td></tr><tr><td style="font-weight:bold;vertical-align:top;">session_id_abcd</td><td style="vertical-align:top;">:</td><td><div>127.0.0.1-0e7e33c0-35d4-4c74-a0a8-e733249aa220<table><tr><td style="font-weight:bold;vertical-align:top;">comment</td><td style="vertical-align:top;">:</td><td><div></div></td></tr><tr><td style="font-weight:bold;vertical-align:top;">domain</td><td style="vertical-align:top;">:</td><td><div></div></td></tr><tr><td style="font-weight:bold;vertical-align:top;">expires</td><td style="vertical-align:top;">:</td><td><div></div></td></tr><tr><td style="font-weight:bold;vertical-align:top;">httponly</td><td style="vertical-align:top;">:</td><td><div></div></td></tr><tr><td style="font-weight:bold;vertical-align:top;">max-age</td><td style="vertical-align:top;">:</td><td><div></div></td></tr><tr><td style="font-weight:bold;vertical-align:top;">path</td><td style="vertical-align:top;">:</td><td><div></div></td></tr><tr><td style="font-weight:bold;vertical-align:top;">secure</td><td style="vertical-align:top;">:</td><td><div></div></td></tr><tr><td style="font-weight:bold;vertical-align:top;">version</td><td style="vertical-align:top;">:</td><td><div></div></td></tr></table></div></td></tr><tr><td style="font-weight:bold;vertical-align:top;">session_id_abcdc</td><td style="vertical-align:top;">:</td><td><div>127.0.0.1-cb430735-b853-4bef-b2d6-6dba1091b7dd<table><tr><td style="font-weight:bold;vertical-align:top;">comment</td><td style="vertical-align:top;">:</td><td><div></div></td></tr><tr><td style="font-weight:bold;vertical-align:top;">domain</td><td style="vertical-align:top;">:</td><td><div></div></td></tr><tr><td style="font-weight:bold;vertical-align:top;">expires</td><td style="vertical-align:top;">:</td><td><div></div></td></tr><tr><td style="font-weight:bold;vertical-align:top;">httponly</td><td style="vertical-align:top;">:</td><td><div></div></td></tr><tr><td style="font-weight:bold;vertical-align:top;">max-age</td><td style="vertical-align:top;">:</td><td><div></div></td></tr><tr><td style="font-weight:bold;vertical-align:top;">path</td><td style="vertical-align:top;">:</td><td><div></div></td></tr><tr><td style="font-weight:bold;vertical-align:top;">secure</td><td style="vertical-align:top;">:</td><td><div></div></td></tr><tr><td style="font-weight:bold;vertical-align:top;">version</td><td style="vertical-align:top;">:</td><td><div></div></td></tr></table></div></td></tr><tr><td style="font-weight:bold;vertical-align:top;">session_id_abcde</td><td style="vertical-align:top;">:</td><td><div>127.0.0.1-8b4c6c60-393b-4f9c-8791-510cc70ed858<table><tr><td style="font-weight:bold;vertical-align:top;">comment</td><td style="vertical-align:top;">:</td><td><div></div></td></tr><tr><td style="font-weight:bold;vertical-align:top;">domain</td><td style="vertical-align:top;">:</td><td><div></div></td></tr><tr><td style="font-weight:bold;vertical-align:top;">expires</td><td style="vertical-align:top;">:</td><td><div></div></td></tr><tr><td style="font-weight:bold;vertical-align:top;">httponly</td><td style="vertical-align:top;">:</td><td><div></div></td></tr><tr><td style="font-weight:bold;vertical-align:top;">max-age</td><td style="vertical-align:top;">:</td><td><div></div></td></tr><tr><td style="font-weight:bold;vertical-align:top;">path</td><td style="vertical-align:top;">:</td><td><div></div></td></tr><tr><td style="font-weight:bold;vertical-align:top;">secure</td><td style="vertical-align:top;">:</td><td><div></div></td></tr><tr><td style="font-weight:bold;vertical-align:top;">version</td><td style="vertical-align:top;">:</td><td><div></div></td></tr></table></div></td></tr><tr><td style="font-weight:bold;vertical-align:top;">session_id_admin</td><td style="vertical-align:top;">:</td><td><div>127.0.0.1-4c1e104d-0b39-494b-b691-01872b2e9914<table><tr><td style="font-weight:bold;vertical-align:top;">comment</td><td style="vertical-align:top;">:</td><td><div></div></td></tr><tr><td style="font-weight:bold;vertical-align:top;">domain</td><td style="vertical-align:top;">:</td><td><div></div></td></tr><tr><td style="font-weight:bold;vertical-align:top;">expires</td><td style="vertical-align:top;">:</td><td><div></div></td></tr><tr><td style="font-weight:bold;vertical-align:top;">httponly</td><td style="vertical-align:top;">:</td><td><div></div></td></tr><tr><td style="font-weight:bold;vertical-align:top;">max-age</td><td style="vertical-align:top;">:</td><td><div></div></td></tr><tr><td style="font-weight:bold;vertical-align:top;">path</td><td style="vertical-align:top;">:</td><td><div></div></td></tr><tr><td style="font-weight:bold;vertical-align:top;">secure</td><td style="vertical-align:top;">:</td><td><div></div></td></tr><tr><td style="font-weight:bold;vertical-align:top;">version</td><td style="vertical-align:top;">:</td><td><div></div></td></tr></table></div></td></tr><tr><td style="font-weight:bold;vertical-align:top;">session_id_cooking_project</td><td style="vertical-align:top;">:</td><td><div>127.0.0.1-fac01e69-ed9f-4f0e-abe6-1cbaef45eadb<table><tr><td style="font-weight:bold;vertical-align:top;">comment</td><td style="vertical-align:top;">:</td><td><div></div></td></tr><tr><td style="font-weight:bold;vertical-align:top;">domain</td><td style="vertical-align:top;">:</td><td><div></div></td></tr><tr><td style="font-weight:bold;vertical-align:top;">expires</td><td style="vertical-align:top;">:</td><td><div></div></td></tr><tr><td style="font-weight:bold;vertical-align:top;">httponly</td><td style="vertical-align:top;">:</td><td><div></div></td></tr><tr><td style="font-weight:bold;vertical-align:top;">max-age</td><td style="vertical-align:top;">:</td><td><div></div></td></tr><tr><td style="font-weight:bold;vertical-align:top;">path</td><td style="vertical-align:top;">:</td><td><div></div></td></tr><tr><td style="font-weight:bold;vertical-align:top;">secure</td><td style="vertical-align:top;">:</td><td><div></div></td></tr><tr><td style="font-weight:bold;vertical-align:top;">version</td><td style="vertical-align:top;">:</td><td><div></div></td></tr></table></div></td></tr><tr><td style="font-weight:bold;vertical-align:top;">session_id_cookingpie</td><td style="vertical-align:top;">:</td><td><div>127.0.0.1-892dd518-da54-43f7-846e-afbd19db9e4f<table><tr><td style="font-weight:bold;vertical-align:top;">comment</td><td style="vertical-align:top;">:</td><td><div></div></td></tr><tr><td style="font-weight:bold;vertical-align:top;">domain</td><td style="vertical-align:top;">:</td><td><div></div></td></tr><tr><td style="font-weight:bold;vertical-align:top;">expires</td><td style="vertical-align:top;">:</td><td><div></div></td></tr><tr><td style="font-weight:bold;vertical-align:top;">httponly</td><td style="vertical-align:top;">:</td><td><div></div></td></tr><tr><td style="font-weight:bold;vertical-align:top;">max-age</td><td style="vertical-align:top;">:</td><td><div></div></td></tr><tr><td style="font-weight:bold;vertical-align:top;">path</td><td style="vertical-align:top;">:</td><td><div></div></td></tr><tr><td style="font-weight:bold;vertical-align:top;">secure</td><td style="vertical-align:top;">:</td><td><div></div></td></tr><tr><td style="font-weight:bold;vertical-align:top;">version</td><td style="vertical-align:top;">:</td><td><div></div></td></tr></table></div></td></tr><tr><td style="font-weight:bold;vertical-align:top;">session_id_cyz</td><td style="vertical-align:top;">:</td><td><div>127.0.0.1-ce213dfd-d95b-47cd-b394-193ae6b428c2<table><tr><td style="font-weight:bold;vertical-align:top;">comment</td><td style="vertical-align:top;">:</td><td><div></div></td></tr><tr><td style="font-weight:bold;vertical-align:top;">domain</td><td style="vertical-align:top;">:</td><td><div></div></td></tr><tr><td style="font-weight:bold;vertical-align:top;">expires</td><td style="vertical-align:top;">:</td><td><div></div></td></tr><tr><td style="font-weight:bold;vertical-align:top;">httponly</td><td style="vertical-align:top;">:</td><td><div></div></td></tr><tr><td style="font-weight:bold;vertical-align:top;">max-age</td><td style="vertical-align:top;">:</td><td><div></div></td></tr><tr><td style="font-weight:bold;vertical-align:top;">path</td><td style="vertical-align:top;">:</td><td><div></div></td></tr><tr><td style="font-weight:bold;vertical-align:top;">secure</td><td style="vertical-align:top;">:</td><td><div></div></td></tr><tr><td style="font-weight:bold;vertical-align:top;">version</td><td style="vertical-align:top;">:</td><td><div></div></td></tr></table></div></td></tr><tr><td style="font-weight:bold;vertical-align:top;">session_id_facebookclone</td><td style="vertical-align:top;">:</td><td><div>127.0.0.1-9e7d61dd-c116-481b-a061-945ab3e3b4e9<table><tr><td style="font-weight:bold;vertical-align:top;">comment</td><td style="vertical-align:top;">:</td><td><div></div></td></tr><tr><td style="font-weight:bold;vertical-align:top;">domain</td><td style="vertical-align:top;">:</td><td><div></div></td></tr><tr><td style="font-weight:bold;vertical-align:top;">expires</td><td style="vertical-align:top;">:</td><td><div></div></td></tr><tr><td style="font-weight:bold;vertical-align:top;">httponly</td><td style="vertical-align:top;">:</td><td><div></div></td></tr><tr><td style="font-weight:bold;vertical-align:top;">max-age</td><td style="vertical-align:top;">:</td><td><div></div></td></tr><tr><td style="font-weight:bold;vertical-align:top;">path</td><td style="vertical-align:top;">:</td><td><div></div></td></tr><tr><td style="font-weight:bold;vertical-align:top;">secure</td><td style="vertical-align:top;">:</td><td><div></div></td></tr><tr><td style="font-weight:bold;vertical-align:top;">version</td><td style="vertical-align:top;">:</td><td><div></div></td></tr></table></div></td></tr><tr><td style="font-weight:bold;vertical-align:top;">session_id_newrs</td><td style="vertical-align:top;">:</td><td><div>127.0.0.1-b3db6d67-c932-4a8c-a59d-833d8d60fa29<table><tr><td style="font-weight:bold;vertical-align:top;">comment</td><td style="vertical-align:top;">:</td><td><div></div></td></tr><tr><td style="font-weight:bold;vertical-align:top;">domain</td><td style="vertical-align:top;">:</td><td><div></div></td></tr><tr><td style="font-weight:bold;vertical-align:top;">expires</td><td style="vertical-align:top;">:</td><td><div></div></td></tr><tr><td style="font-weight:bold;vertical-align:top;">httponly</td><td style="vertical-align:top;">:</td><td><div></div></td></tr><tr><td style="font-weight:bold;vertical-align:top;">max-age</td><td style="vertical-align:top;">:</td><td><div></div></td></tr><tr><td style="font-weight:bold;vertical-align:top;">path</td><td style="vertical-align:top;">:</td><td><div></div></td></tr><tr><td style="font-weight:bold;vertical-align:top;">secure</td><td style="vertical-align:top;">:</td><td><div></div></td></tr><tr><td style="font-weight:bold;vertical-align:top;">version</td><td style="vertical-align:top;">:</td><td><div></div></td></tr></table></div></td></tr><tr><td style="font-weight:bold;vertical-align:top;">session_id_project</td><td style="vertical-align:top;">:</td><td><div>127.0.0.1-57ec9f49-784f-4f03-9ecb-efc2a9839d71<table><tr><td style="font-weight:bold;vertical-align:top;">comment</td><td style="vertical-align:top;">:</td><td><div></div></td></tr><tr><td style="font-weight:bold;vertical-align:top;">domain</td><td style="vertical-align:top;">:</td><td><div></div></td></tr><tr><td style="font-weight:bold;vertical-align:top;">expires</td><td style="vertical-align:top;">:</td><td><div></div></td></tr><tr><td style="font-weight:bold;vertical-align:top;">httponly</td><td style="vertical-align:top;">:</td><td><div></div></td></tr><tr><td style="font-weight:bold;vertical-align:top;">max-age</td><td style="vertical-align:top;">:</td><td><div></div></td></tr><tr><td style="font-weight:bold;vertical-align:top;">path</td><td style="vertical-align:top;">:</td><td><div></div></td></tr><tr><td style="font-weight:bold;vertical-align:top;">secure</td><td style="vertical-align:top;">:</td><td><div></div></td></tr><tr><td style="font-weight:bold;vertical-align:top;">version</td><td style="vertical-align:top;">:</td><td><div></div></td></tr></table></div></td></tr><tr><td style="font-weight:bold;vertical-align:top;">session_id_project1</td><td style="vertical-align:top;">:</td><td><div>127.0.0.1-633818c3-ed07-4182-9146-6eba72aa8b99<table><tr><td style="font-weight:bold;vertical-align:top;">comment</td><td style="vertical-align:top;">:</td><td><div></div></td></tr><tr><td style="font-weight:bold;vertical-align:top;">domain</td><td style="vertical-align:top;">:</td><td><div></div></td></tr><tr><td style="font-weight:bold;vertical-align:top;">expires</td><td style="vertical-align:top;">:</td><td><div></div></td></tr><tr><td style="font-weight:bold;vertical-align:top;">httponly</td><td style="vertical-align:top;">:</td><td><div></div></td></tr><tr><td style="font-weight:bold;vertical-align:top;">max-age</td><td style="vertical-align:top;">:</td><td><div></div></td></tr><tr><td style="font-weight:bold;vertical-align:top;">path</td><td style="vertical-align:top;">:</td><td><div></div></td></tr><tr><td style="font-weight:bold;vertical-align:top;">secure</td><td style="vertical-align:top;">:</td><td><div></div></td></tr><tr><td style="font-weight:bold;vertical-align:top;">version</td><td style="vertical-align:top;">:</td><td><div></div></td></tr></table></div></td></tr><tr><td style="font-weight:bold;vertical-align:top;">session_id_task1</td><td style="vertical-align:top;">:</td><td><div>127.0.0.1-432ad88b-d953-4a6f-a202-d4e88a3c867f<table><tr><td style="font-weight:bold;vertical-align:top;">comment</td><td style="vertical-align:top;">:</td><td><div></div></td></tr><tr><td style="font-weight:bold;vertical-align:top;">domain</td><td style="vertical-align:top;">:</td><td><div></div></td></tr><tr><td style="font-weight:bold;vertical-align:top;">expires</td><td style="vertical-align:top;">:</td><td><div></div></td></tr><tr><td style="font-weight:bold;vertical-align:top;">httponly</td><td style="vertical-align:top;">:</td><td><div></div></td></tr><tr><td style="font-weight:bold;vertical-align:top;">max-age</td><td style="vertical-align:top;">:</td><td><div></div></td></tr><tr><td style="font-weight:bold;vertical-align:top;">path</td><td style="vertical-align:top;">:</td><td><div></div></td></tr><tr><td style="font-weight:bold;vertical-align:top;">secure</td><td style="vertical-align:top;">:</td><td><div></div></td></tr><tr><td style="font-weight:bold;vertical-align:top;">version</td><td style="vertical-align:top;">:</td><td><div></div></td></tr></table></div></td></tr><tr><td style="font-weight:bold;vertical-align:top;">session_id_welcome</td><td style="vertical-align:top;">:</td><td><div>127.0.0.1-6cedf034-ffca-4cab-aea2-9a18fae76107<table><tr><td style="font-weight:bold;vertical-align:top;">comment</td><td style="vertical-align:top;">:</td><td><div></div></td></tr><tr><td style="font-weight:bold;vertical-align:top;">domain</td><td style="vertical-align:top;">:</td><td><div></div></td></tr><tr><td style="font-weight:bold;vertical-align:top;">expires</td><td style="vertical-align:top;">:</td><td><div></div></td></tr><tr><td style="font-weight:bold;vertical-align:top;">httponly</td><td style="vertical-align:top;">:</td><td><div></div></td></tr><tr><td style="font-weight:bold;vertical-align:top;">max-age</td><td style="vertical-align:top;">:</td><td><div></div></td></tr><tr><td style="font-weight:bold;vertical-align:top;">path</td><td style="vertical-align:top;">:</td><td><div></div></td></tr><tr><td style="font-weight:bold;vertical-align:top;">secure</td><td style="vertical-align:top;">:</td><td><div></div></td></tr><tr><td style="font-weight:bold;vertical-align:top;">version</td><td style="vertical-align:top;">:</td><td><div></div></td></tr></table></div></td></tr></table></div></td></tr><tr><td style="font-weight:bold;vertical-align:top;">env</td><td style="vertical-align:top;">:</td><td><div><table><tr><td style="font-weight:bold;vertical-align:top;">HTTP_ACCEPT</td><td style="vertical-align:top;">:</td><td><div>text/html,application/xhtml+xml,application/xml;q=0.9,*/*;q=0.8</div></td></tr><tr><td style="font-weight:bold;vertical-align:top;">HTTP_ACCEPT_ENCODING</td><td style="vertical-align:top;">:</td><td><div>gzip, deflate</div></td></tr><tr><td style="font-weight:bold;vertical-align:top;">HTTP_ACCEPT_LANGUAGE</td><td style="vertical-align:top;">:</td><td><div>en-US,en;q=0.5</div></td></tr><tr><td style="font-weight:bold;vertical-align:top;">HTTP_CACHE_CONTROL</td><td style="vertical-align:top;">:</td><td><div>max-age=0</div></td></tr><tr><td style="font-weight:bold;vertical-align:top;">HTTP_CONNECTION</td><td style="vertical-align:top;">:</td><td><div>keep-alive</div></td></tr><tr><td style="font-weight:bold;vertical-align:top;">HTTP_COOKIE</td><td style="vertical-align:top;">:</td><td><div>session_id_welcome=127.0.0.1-6cedf034-ffca-4cab-aea2-9a18fae76107; session_id_admin=127.0.0.1-4c1e104d-0b39-494b-b691-01872b2e9914; session_id_task1=127.0.0.1-432ad88b-d953-4a6f-a202-d4e88a3c867f; session_id_facebookclone=127.0.0.1-9e7d61dd-c116-481b-a061-945ab3e3b4e9; session_id_cookingpie=127.0.0.1-892dd518-da54-43f7-846e-afbd19db9e4f; session_id_newrs=127.0.0.1-b3db6d67-c932-4a8c-a59d-833d8d60fa29; session_id_project=127.0.0.1-57ec9f49-784f-4f03-9ecb-efc2a9839d71; session_id_cyz=127.0.0.1-ce213dfd-d95b-47cd-b394-193ae6b428c2; session_id_abcd=127.0.0.1-0e7e33c0-35d4-4c74-a0a8-e733249aa220; session_id_abcdc=127.0.0.1-cb430735-b853-4bef-b2d6-6dba1091b7dd; session_id_abcde=127.0.0.1-8b4c6c60-393b-4f9c-8791-510cc70ed858; session_id_project1=127.0.0.1-633818c3-ed07-4182-9146-6eba72aa8b99; session_id_cooking_project=127.0.0.1-fac01e69-ed9f-4f0e-abe6-1cbaef45eadb; session_id_201516002_assignment3=127.0.0.1-0991d3ec-400c-4cf1-84f0-e000d1d4e0b0</div></td></tr><tr><td style="font-weight:bold;vertical-align:top;">HTTP_HOST</td><td style="vertical-align:top;">:</td><td><div>127.0.0.1:8000</div></td></tr><tr><td style="font-weight:bold;vertical-align:top;">HTTP_REFERER</td><td style="vertical-align:top;">:</td><td><div>http://127.0.0.1:8000/Task1/default/incomplete</div></td></tr><tr><td style="font-weight:bold;vertical-align:top;">HTTP_USER_AGENT</td><td style="vertical-align:top;">:</td><td><div>Mozilla/5.0 (X11; Fedora; Linux x86_64; rv:45.0) Gecko/20100101 Firefox/45.0</div></td></tr><tr><td style="font-weight:bold;vertical-align:top;">PATH_INFO</td><td style="vertical-align:top;">:</td><td><div>/Task1/default/show1/25</div></td></tr><tr><td style="font-weight:bold;vertical-align:top;">QUERY_STRING</td><td style="vertical-align:top;">:</td><td><div></div></td></tr><tr><td style="font-weight:bold;vertical-align:top;">REMOTE_ADDR</td><td style="vertical-align:top;">:</td><td><div>127.0.0.1</div></td></tr><tr><td style="font-weight:bold;vertical-align:top;">REMOTE_PORT</td><td style="vertical-align:top;">:</td><td><div>41724</div></td></tr><tr><td style="font-weight:bold;vertical-align:top;">REQUEST_METHOD</td><td style="vertical-align:top;">:</td><td><div>GET</div></td></tr><tr><td style="font-weight:bold;vertical-align:top;">SCRIPT_NAME</td><td style="vertical-align:top;">:</td><td><div></div></td></tr><tr><td style="font-weight:bold;vertical-align:top;">SERVER_NAME</td><td style="vertical-align:top;">:</td><td><div>localhost.localdomain</div></td></tr><tr><td style="font-weight:bold;vertical-align:top;">SERVER_PORT</td><td style="vertical-align:top;">:</td><td><div>8000</div></td></tr><tr><td style="font-weight:bold;vertical-align:top;">SERVER_PROTOCOL</td><td style="vertical-align:top;">:</td><td><div>HTTP/1.1</div></td></tr><tr><td style="font-weight:bold;vertical-align:top;">SERVER_SOFTWARE</td><td style="vertical-align:top;">:</td><td><div>Rocket 1.2.6</div></td></tr><tr><td style="font-weight:bold;vertical-align:top;">app_folders</td><td style="vertical-align:top;">:</td><td><div>set([&#x27;/home/anam786/itws/project/web2py/applications/cooking_project/&#x27;, &#x27;/home/anam786/itws/project/web2py/applications/project1/&#x27;, &#x27;/home/anam786/itws/project/web2py/applications/admin/&#x27;, &#x27;/home/anam786/itws/project/web2py/applications/abcd/&#x27;, &#x27;/home/anam786/itws/project/web2py/applications/201516002_Assignment3/&#x27;, &#x27;/home/anam786/itws/project/web2py/applications/cyz/&#x27;, &#x27;/home/anam786/itws/project/web2py/applications/welcome/&#x27;, &#x27;/home/anam786/itws/project/web2py/applications/Task1/&#x27;, &#x27;/home/anam786/itws/project/web2py/applications/abcdc/&#x27;, &#x27;/home/anam786/itws/project/web2py/applications/abcde/&#x27;])</div></td></tr><tr><td style="font-weight:bold;vertical-align:top;">applications_parent</td><td style="vertical-align:top;">:</td><td><div>/home/anam786/itws/project/web2py</div></td></tr><tr><td style="font-weight:bold;vertical-align:top;">cmd_args</td><td style="vertical-align:top;">:</td><td><div><table></table></div></td></tr><tr><td style="font-weight:bold;vertical-align:top;">cmd_options</td><td style="vertical-align:top;">:</td><td><div>&lt;Values at 0x7f391fc64c68: {&#x27;verbose&#x27;: False, &#x27;ip&#x27;: &#x27;127.0.0.1&#x27;, &#x27;debuglevel&#x27;: 30, &#x27;with_scheduler&#x27;: False, &#x27;shutdown_timeout&#x27;: 5, &#x27;taskbar&#x27;: False, &#x27;with_coverage&#x27;: False, &#x27;pid_filename&#x27;: &#x27;httpserver.pid&#x27;, &#x27;maxthreads&#x27;: None, &#x27;softcron&#x27;: False, &#x27;server_name&#x27;: &#x27;localhost.localdomain&#x27;, &#x27;bpython&#x27;: False, &#x27;nogui&#x27;: False, &#x27;port&#x27;: 8000, &#x27;print_errors&#x27;: False, &#x27;extcron&#x27;: False, &#x27;runcron&#x27;: False, &#x27;run_system_tests&#x27;: False, &#x27;test&#x27;: None, &#x27;folder&#x27;: &#x27;/home/anam786/itws/project/web2py&#x27;, &#x27;config&#x27;: &#x27;&#x27;, &#x27;minthreads&#x27;: None, &#x27;shell&#x27;: None, &#x27;run&#x27;: &#x27;&#x27;, &#x27;log_filename&#x27;: &#x27;httpserver.log&#x27;, &#x27;profiler_dir&#x27;: None, &#x27;args&#x27;: [&#x27;&#x27;], &#x27;socket_timeout&#x27;: 5, &#x27;ssl_ca_certificate&#x27;: None, &#x27;scheduler&#x27;: None, &#x27;interfaces&#x27;: None, &#x27;ssl_private_key&#x27;: &#x27;&#x27;, &#x27;gae&#x27;: None, &#x27;password&#x27;: &#x27;******&#x27;, &#x27;request_queue_size&#x27;: 5, &#x27;ssl_certificate&#x27;: &#x27;&#x27;, &#x27;cronjob&#x27;: False, &#x27;numthreads&#x27;: None, &#x27;quiet&#x27;: False, &#x27;import_models&#x27;: False, &#x27;timeout&#x27;: 10, &#x27;plain&#x27;: False, &#x27;nobanner&#x27;: False}&gt;</div></td></tr><tr><td style="font-weight:bold;vertical-align:top;">db_sessions</td><td style="vertical-align:top;">:</td><td><div>set([])</div></td></tr><tr><td style="font-weight:bold;vertical-align:top;">debugging</td><td style="vertical-align:top;">:</td><td><div>True</div></td></tr><tr><td style="font-weight:bold;vertical-align:top;">gluon_parent</td><td style="vertical-align:top;">:</td><td><div>/home/anam786/itws/project/web2py</div></td></tr><tr><td style="font-weight:bold;vertical-align:top;">http_accept</td><td style="vertical-align:top;">:</td><td><div>text/html,application/xhtml+xml,application/xml;q=0.9,*/*;q=0.8</div></td></tr><tr><td style="font-weight:bold;vertical-align:top;">http_accept_encoding</td><td style="vertical-align:top;">:</td><td><div>gzip, deflate</div></td></tr><tr><td style="font-weight:bold;vertical-align:top;">http_accept_language</td><td style="vertical-align:top;">:</td><td><div>en-US,en;q=0.5</div></td></tr><tr><td style="font-weight:bold;vertical-align:top;">http_cache_control</td><td style="vertical-align:top;">:</td><td><div>max-age=0</div></td></tr><tr><td style="font-weight:bold;vertical-align:top;">http_connection</td><td style="vertical-align:top;">:</td><td><div>keep-alive</div></td></tr><tr><td style="font-weight:bold;vertical-align:top;">http_cookie</td><td style="vertical-align:top;">:</td><td><div>session_id_welcome=127.0.0.1-6cedf034-ffca-4cab-aea2-9a18fae76107; session_id_admin=127.0.0.1-4c1e104d-0b39-494b-b691-01872b2e9914; session_id_task1=127.0.0.1-432ad88b-d953-4a6f-a202-d4e88a3c867f; session_id_facebookclone=127.0.0.1-9e7d61dd-c116-481b-a061-945ab3e3b4e9; session_id_cookingpie=127.0.0.1-892dd518-da54-43f7-846e-afbd19db9e4f; session_id_newrs=127.0.0.1-b3db6d67-c932-4a8c-a59d-833d8d60fa29; session_id_project=127.0.0.1-57ec9f49-784f-4f03-9ecb-efc2a9839d71; session_id_cyz=127.0.0.1-ce213dfd-d95b-47cd-b394-193ae6b428c2; session_id_abcd=127.0.0.1-0e7e33c0-35d4-4c74-a0a8-e733249aa220; session_id_abcdc=127.0.0.1-cb430735-b853-4bef-b2d6-6dba1091b7dd; session_id_abcde=127.0.0.1-8b4c6c60-393b-4f9c-8791-510cc70ed858; session_id_project1=127.0.0.1-633818c3-ed07-4182-9146-6eba72aa8b99; session_id_cooking_project=127.0.0.1-fac01e69-ed9f-4f0e-abe6-1cbaef45eadb; session_id_201516002_assignment3=127.0.0.1-0991d3ec-400c-4cf1-84f0-e000d1d4e0b0</div></td></tr><tr><td style="font-weight:bold;vertical-align:top;">http_host</td><td style="vertical-align:top;">:</td><td><div>127.0.0.1:8000</div></td></tr><tr><td style="font-weight:bold;vertical-align:top;">http_referer</td><td style="vertical-align:top;">:</td><td><div>http://127.0.0.1:8000/Task1/default/incomplete</div></td></tr><tr><td style="font-weight:bold;vertical-align:top;">http_user_agent</td><td style="vertical-align:top;">:</td><td><div>Mozilla/5.0 (X11; Fedora; Linux x86_64; rv:45.0) Gecko/20100101 Firefox/45.0</div></td></tr><tr><td style="font-weight:bold;vertical-align:top;">is_jython</td><td style="vertical-align:top;">:</td><td><div>False</div></td></tr><tr><td style="font-weight:bold;vertical-align:top;">is_pypy</td><td style="vertical-align:top;">:</td><td><div>False</div></td></tr><tr><td style="font-weight:bold;vertical-align:top;">is_source</td><td style="vertical-align:top;">:</td><td><div>True</div></td></tr><tr><td style="font-weight:bold;vertical-align:top;">local_hosts</td><td style="vertical-align:top;">:</td><td><div><table><tr><td><div>::1</div></td></tr><tr><td><div>::ffff:127.0.0.1</div></td></tr><tr><td><div>127.0.0.1</div></td></tr><tr><td><div>localhost.localdomain</div></td></tr></table></div></td></tr><tr><td style="font-weight:bold;vertical-align:top;">path_info</td><td style="vertical-align:top;">:</td><td><div>/Task1/default/show1/25</div></td></tr><tr><td style="font-weight:bold;vertical-align:top;">query_string</td><td style="vertical-align:top;">:</td><td><div></div></td></tr><tr><td style="font-weight:bold;vertical-align:top;">remote_addr</td><td style="vertical-align:top;">:</td><td><div>127.0.0.1</div></td></tr><tr><td style="font-weight:bold;vertical-align:top;">remote_port</td><td style="vertical-align:top;">:</td><td><div>41724</div></td></tr><tr><td style="font-weight:bold;vertical-align:top;">request_method</td><td style="vertical-align:top;">:</td><td><div>GET</div></td></tr><tr><td style="font-weight:bold;vertical-align:top;">request_uri</td><td style="vertical-align:top;">:</td><td><div>/Task1/default/show1/25</div></td></tr><tr><td style="font-weight:bold;vertical-align:top;">script_name</td><td style="vertical-align:top;">:</td><td><div></div></td></tr><tr><td style="font-weight:bold;vertical-align:top;">server_name</td><td style="vertical-align:top;">:</td><td><div>localhost.localdomain</div></td></tr><tr><td style="font-weight:bold;vertical-align:top;">server_port</td><td style="vertical-align:top;">:</td><td><div>8000</div></td></tr><tr><td style="font-weight:bold;vertical-align:top;">server_protocol</td><td style="vertical-align:top;">:</td><td><div>HTTP/1.1</div></td></tr><tr><td style="font-weight:bold;vertical-align:top;">server_software</td><td style="vertical-align:top;">:</td><td><div>Rocket 1.2.6</div></td></tr><tr><td style="font-weight:bold;vertical-align:top;">web2py_path</td><td style="vertical-align:top;">:</td><td><div>/home/anam786/itws/project/web2py</div></td></tr><tr><td style="font-weight:bold;vertical-align:top;">web2py_version</td><td style="vertical-align:top;">:</td><td><div>2.14.3-stable+timestamp.2016.04.07.15.54.08</div></td></tr><tr><td style="font-weight:bold;vertical-align:top;">wsgi.errors</td><td style="vertical-align:top;">:</td><td><div>&lt;open file &#x27;&lt;stderr&gt;&#x27;, mode &#x27;w&#x27; at 0x7f39311f41e0&gt;</div></td></tr><tr><td style="font-weight:bold;vertical-align:top;">wsgi.file_wrapper</td><td style="vertical-align:top;">:</td><td><div>&lt;class wsgiref.util.FileWrapper at 0x7f391fc93188&gt;</div></td></tr><tr><td style="font-weight:bold;vertical-align:top;">wsgi.input</td><td style="vertical-align:top;">:</td><td><div>&lt;socket._fileobject object at 0x7f38e00cc8d0&gt;</div></td></tr><tr><td style="font-weight:bold;vertical-align:top;">wsgi.multiprocess</td><td style="vertical-align:top;">:</td><td><div>False</div></td></tr><tr><td style="font-weight:bold;vertical-align:top;">wsgi.multithread</td><td style="vertical-align:top;">:</td><td><div>True</div></td></tr><tr><td style="font-weight:bold;vertical-align:top;">wsgi.run_once</td><td style="vertical-align:top;">:</td><td><div>False</div></td></tr><tr><td style="font-weight:bold;vertical-align:top;">wsgi.url_scheme</td><td style="vertical-align:top;">:</td><td><div>http</div></td></tr><tr><td style="font-weight:bold;vertical-align:top;">wsgi.version</td><td style="vertical-align:top;">:</td><td><div><table><tr><td><div>1</div></td></tr><tr><td><div>0</div></td></tr></table></div></td></tr><tr><td style="font-weight:bold;vertical-align:top;">wsgi_errors</td><td style="vertical-align:top;">:</td><td><div>&lt;open file &#x27;&lt;stderr&gt;&#x27;, mode &#x27;w&#x27; at 0x7f39311f41e0&gt;</div></td></tr><tr><td style="font-weight:bold;vertical-align:top;">wsgi_file_wrapper</td><td style="vertical-align:top;">:</td><td><div>&lt;class wsgiref.util.FileWrapper at 0x7f391fc93188&gt;</div></td></tr><tr><td style="font-weight:bold;vertical-align:top;">wsgi_input</td><td style="vertical-align:top;">:</td><td><div>&lt;socket._fileobject object at 0x7f38e00cc8d0&gt;</div></td></tr><tr><td style="font-weight:bold;vertical-align:top;">wsgi_multiprocess</td><td style="vertical-align:top;">:</td><td><div>False</div></td></tr><tr><td style="font-weight:bold;vertical-align:top;">wsgi_multithread</td><td style="vertical-align:top;">:</td><td><div>True</div></td></tr><tr><td style="font-weight:bold;vertical-align:top;">wsgi_run_once</td><td style="vertical-align:top;">:</td><td><div>False</div></td></tr><tr><td style="font-weight:bold;vertical-align:top;">wsgi_url_scheme</td><td style="vertical-align:top;">:</td><td><div>http</div></td></tr><tr><td style="font-weight:bold;vertical-align:top;">wsgi_version</td><td style="vertical-align:top;">:</td><td><div><table><tr><td><div>1</div></td></tr><tr><td><div>0</div></td></tr></table></div></td></tr></table></div></td></tr><tr><td style="font-weight:bold;vertical-align:top;">extension</td><td style="vertical-align:top;">:</td><td><div>html</div></td></tr><tr><td style="font-weight:bold;vertical-align:top;">folder</td><td style="vertical-align:top;">:</td><td><div>/home/anam786/itws/project/web2py/applications/Task1/</div></td></tr><tr><td style="font-weight:bold;vertical-align:top;">function</td><td style="vertical-align:top;">:</td><td><div>show1</div></td></tr><tr><td style="font-weight:bold;vertical-align:top;">global_settings</td><td style="vertical-align:top;">:</td><td><div><table><tr><td style="font-weight:bold;vertical-align:top;">app_folders</td><td style="vertical-align:top;">:</td><td><div>set([&#x27;/home/anam786/itws/project/web2py/applications/cooking_project/&#x27;, &#x27;/home/anam786/itws/project/web2py/applications/project1/&#x27;, &#x27;/home/anam786/itws/project/web2py/applications/admin/&#x27;, &#x27;/home/anam786/itws/project/web2py/applications/abcd/&#x27;, &#x27;/home/anam786/itws/project/web2py/applications/201516002_Assignment3/&#x27;, &#x27;/home/anam786/itws/project/web2py/applications/cyz/&#x27;, &#x27;/home/anam786/itws/project/web2py/applications/welcome/&#x27;, &#x27;/home/anam786/itws/project/web2py/applications/Task1/&#x27;, &#x27;/home/anam786/itws/project/web2py/applications/abcdc/&#x27;, &#x27;/home/anam786/itws/project/web2py/applications/abcde/&#x27;])</div></td></tr><tr><td style="font-weight:bold;vertical-align:top;">applications_parent</td><td style="vertical-align:top;">:</td><td><div>/home/anam786/itws/project/web2py</div></td></tr><tr><td style="font-weight:bold;vertical-align:top;">cmd_args</td><td style="vertical-align:top;">:</td><td><div><table></table></div></td></tr><tr><td style="font-weight:bold;vertical-align:top;">cmd_options</td><td style="vertical-align:top;">:</td><td><div>&lt;Values at 0x7f391fc64c68: {&#x27;verbose&#x27;: False, &#x27;ip&#x27;: &#x27;127.0.0.1&#x27;, &#x27;debuglevel&#x27;: 30, &#x27;with_scheduler&#x27;: False, &#x27;shutdown_timeout&#x27;: 5, &#x27;taskbar&#x27;: False, &#x27;with_coverage&#x27;: False, &#x27;pid_filename&#x27;: &#x27;httpserver.pid&#x27;, &#x27;maxthreads&#x27;: None, &#x27;softcron&#x27;: False, &#x27;server_name&#x27;: &#x27;localhost.localdomain&#x27;, &#x27;bpython&#x27;: False, &#x27;nogui&#x27;: False, &#x27;port&#x27;: 8000, &#x27;print_errors&#x27;: False, &#x27;extcron&#x27;: False, &#x27;runcron&#x27;: False, &#x27;run_system_tests&#x27;: False, &#x27;test&#x27;: None, &#x27;folder&#x27;: &#x27;/home/anam786/itws/project/web2py&#x27;, &#x27;config&#x27;: &#x27;&#x27;, &#x27;minthreads&#x27;: None, &#x27;shell&#x27;: None, &#x27;run&#x27;: &#x27;&#x27;, &#x27;log_filename&#x27;: &#x27;httpserver.log&#x27;, &#x27;profiler_dir&#x27;: None, &#x27;args&#x27;: [&#x27;&#x27;], &#x27;socket_timeout&#x27;: 5, &#x27;ssl_ca_certificate&#x27;: None, &#x27;scheduler&#x27;: None, &#x27;interfaces&#x27;: None, &#x27;ssl_private_key&#x27;: &#x27;&#x27;, &#x27;gae&#x27;: None, &#x27;password&#x27;: &#x27;******&#x27;, &#x27;request_queue_size&#x27;: 5, &#x27;ssl_certificate&#x27;: &#x27;&#x27;, &#x27;cronjob&#x27;: False, &#x27;numthreads&#x27;: None, &#x27;quiet&#x27;: False, &#x27;import_models&#x27;: False, &#x27;timeout&#x27;: 10, &#x27;plain&#x27;: False, &#x27;nobanner&#x27;: False}&gt;</div></td></tr><tr><td style="font-weight:bold;vertical-align:top;">db_sessions</td><td style="vertical-align:top;">:</td><td><div>set([])</div></td></tr><tr><td style="font-weight:bold;vertical-align:top;">debugging</td><td style="vertical-align:top;">:</td><td><div>True</div></td></tr><tr><td style="font-weight:bold;vertical-align:top;">gluon_parent</td><td style="vertical-align:top;">:</td><td><div>/home/anam786/itws/project/web2py</div></td></tr><tr><td style="font-weight:bold;vertical-align:top;">is_jython</td><td style="vertical-align:top;">:</td><td><div>False</div></td></tr><tr><td style="font-weight:bold;vertical-align:top;">is_pypy</td><td style="vertical-align:top;">:</td><td><div>False</div></td></tr><tr><td style="font-weight:bold;vertical-align:top;">is_source</td><td style="vertical-align:top;">:</td><td><div>True</div></td></tr><tr><td style="font-weight:bold;vertical-align:top;">local_hosts</td><td style="vertical-align:top;">:</td><td><div><table><tr><td><div>::1</div></td></tr><tr><td><div>::ffff:127.0.0.1</div></td></tr><tr><td><div>127.0.0.1</div></td></tr><tr><td><div>localhost.localdomain</div></td></tr></table></div></td></tr><tr><td style="font-weight:bold;vertical-align:top;">web2py_version</td><td style="vertical-align:top;">:</td><td><div>2.14.3-stable+timestamp.2016.04.07.15.54.08</div></td></tr></table></div></td></tr><tr><td style="font-weight:bold;vertical-align:top;">is_https</td><td style="vertical-align:top;">:</td><td><div>False</div></td></tr><tr><td style="font-weight:bold;vertical-align:top;">is_local</td><td style="vertical-align:top;">:</td><td><div>True</div></td></tr><tr><td style="font-weight:bold;vertical-align:top;">is_restful</td><td style="vertical-align:top;">:</td><td><div>False</div></td></tr><tr><td style="font-weight:bold;vertical-align:top;">is_scheduler</td><td style="vertical-align:top;">:</td><td><div>False</div></td></tr><tr><td style="font-weight:bold;vertical-align:top;">is_shell</td><td style="vertical-align:top;">:</td><td><div>False</div></td></tr><tr><td style="font-weight:bold;vertical-align:top;">now</td><td style="vertical-align:top;">:</td><td><div>datetime.datetime(2016, 5, 3, 4, 37, 56, 105802)</div></td></tr><tr><td style="font-weight:bold;vertical-align:top;">raw_args</td><td style="vertical-align:top;">:</td><td><div>25</div></td></tr><tr><td style="font-weight:bold;vertical-align:top;">raw_extension</td><td style="vertical-align:top;">:</td><td><div>None</div></td></tr><tr><td style="font-weight:bold;vertical-align:top;">url</td><td style="vertical-align:top;">:</td><td><div>/Task1/default/show1/25</div></td></tr><tr><td style="font-weight:bold;vertical-align:top;">utcnow</td><td style="vertical-align:top;">:</td><td><div>datetime.datetime(2016, 5, 2, 23, 7, 56, 105871)</div></td></tr><tr><td style="font-weight:bold;vertical-align:top;">wsgi</td><td style="vertical-align:top;">:</td><td><div>&lt;gluon.main.LazyWSGI object at 0x7f392590d3d0&gt;</div></td></tr></table></div>'
tRp70
sS'frames'
p71
(lp72
(dp73
S'file'
p74
S'/home/anam786/itws/project/web2py/gluon/restricted.py'
p75
sS'dump'
p76
(dp77
S'environment'
p78
S"{'A': <class 'gluon.html.A'>, 'ANY_OF': <class 'gluon.validators.ANY_OF'>, 'ASSIGNJS': <function ASSIGNJS>, 'AppConfig': <function AppConfig>, 'Auth': <class 'gluon.tools.Auth'>, 'B': <class 'gluon.html.B'>, 'BEAUTIFY': <class 'gluon.html.BEAUTIFY'>, 'BODY': <class 'gluon.html.BODY'>, 'BR': <class 'gluon.html.BR'>, 'BUTTON': <class 'gluon.html.BUTTON'>, ...}"
p79
sS'ccode'
p80
S'<code object <module> at 0x7f38e2e40030, file "/...plications/Task1/controllers/default.py", line 3>'
p81
ssS'lnum'
p82
I227
sS'lines'
p83
(dp84
I224
S'            ccode = code'
p85
sI225
S'        else:'
p86
sI226
S'            ccode = compile2(code, layer)'
p87
sI227
S'        exec ccode in environment'
p88
sI228
S'    except HTTP:'
p89
sI229
S'        raise'
p90
sI230
S'    except RestrictedError:'
p91
sI231
S'        # do not encapsulate (obfuscate) the original RestrictedError'
p92
sI222
S'    try:'
p93
sI223
S'        if isinstance(code, types.CodeType):'
p94
ssS'call'
p95
S'(code="# -*- coding: utf-8 -*-\\n# this file is released ...als()\'\'\'\\n\\nresponse._vars=response._caller(show1)\\n", environment={\'A\': <class \'gluon.html.A\'>, \'ANY_OF\': <class \'gluon.validators.ANY_OF\'>, \'ASSIGNJS\': <function ASSIGNJS>, \'AppConfig\': <function AppConfig>, \'Auth\': <class \'gluon.tools.Auth\'>, \'B\': <class \'gluon.html.B\'>, \'BEAUTIFY\': <class \'gluon.html.BEAUTIFY\'>, \'BODY\': <class \'gluon.html.BODY\'>, \'BR\': <class \'gluon.html.BR\'>, \'BUTTON\': <class \'gluon.html.BUTTON\'>, ...}, layer=\'/home/anam786/itws/project/web2py/applications/Task1/controllers/default.py\')'
p96
sS'func'
p97
S'restricted'
p98
sa(dp99
g74
S'/home/anam786/itws/project/web2py/applications/Task1/controllers/default.py'
p100
sg76
(dp101
sg82
I237
sg83
(dp102
I226
S'#db.upload.Deadline.represent = lambda x,row: prettydate(x)'
p103
sI227
S'def needtodo():'
p104
sI228
S"    #grid=SQLFORM.smartgrid(db.auth_user,linked_tables=['task'])"
p105
sI229
S"    rows=db((db.upload.status == 'assigned')|(db.upload.status == 'pending')).select(orderby=~db.upload.created_on)"
p106
sI230
S'    return locals()'
p107
sI231
S''
sI232
S'def activitytable():'
p108
sI233
S'    s=db(db.upload.Username==(auth.user.first_name+auth.user.last_name)).select(db.upload.ALL)'
p109
sI234
S'    current=datetime.datetime.now()'
p110
sI235
S"    return locals()'''"
p111
ssg95
S'()'
p112
sg97
S'<module>'
p113
sa(dp114
g74
S'/home/anam786/itws/project/web2py/gluon/globals.py'
p115
sg76
(dp116
S'self'
p117
S'undefined'
p118
sS'f'
S'<function show1>'
p119
ssg82
I417
sg83
(dp120
I416
S'        self._vars = None'
p121
sI417
S'        self._caller = lambda f: f()'
p122
sI418
S'        self._view_environment = None'
p123
sI419
S'        self._custom_commit = None'
p124
sI420
S'        self._custom_rollback = None'
p125
sI421
S"        self.generic_patterns = ['*']"
p126
sI412
S"        self.flash = ''            # used by the default view layout"
p127
sI413
S'        self.meta = Storage()      # used by web2py_ajax.html'
p128
sI414
S'        self.menu = []             # used by the default view layout'
p129
sI415
S'        self.files = []            # used by web2py_ajax.html'
p130
ssg95
S'(f=<function show1>)'
p131
sg97
S'<lambda>'
p132
sa(dp133
g74
S'/home/anam786/itws/project/web2py/applications/Task1/controllers/default.py'
p134
sg76
(dp135
S'global db'
p136
S'<DAL uri="sqlite://db.db">'
p137
sS'builtinnext'
p138
S'<built-in function next>'
p139
sS'db.post'
p140
S'<Table post (id, upload, body, created_on, created_by)>'
p141
sS'comments'
p142
g118
sS').select'
p143
g118
ssg82
I29
sg83
(dp144
I32
S'@auth.requires_login()'
p145
sI33
S'def edit():'
p146
sI24
S'    que=str(po.Date_of_Upload)'
p147
sI25
S'    db.post.upload.default = data'
p148
sI26
S'    db.post.created_on.default = request.now.date()'
p149
sI27
S'    db.post.created_by.default = auth.user.username'
p150
sI28
S'    form = SQLFORM(db.post).process() if auth.user else None'
p151
sI29
S"    comments = db(db.post).select(next='show1/[data]')"
p152
sI30
S'    return dict(form=form, comments=comments, data=data, rows=rows)'
p153
sI31
S''
ssg95
S'()'
p154
sg97
S'show1'
p155
sa(dp156
g74
S'/home/anam786/itws/project/web2py/gluon/packages/dal/pydal/objects.py'
p157
sg76
(dp158
S'self.query'
p159
S'<Query (post.id IS NOT NULL)>'
p160
sS'adapter.select'
p161
S'<bound method SQLiteAdapter.select of <pydal.adapters.sqlite.SQLiteAdapter object>>'
p162
sS'fields'
p163
S'[<pydal.objects.Field object>, <pydal.objects.Field object>, <pydal.objects.Field object>, <pydal.objects.Field object>, <pydal.objects.Field object>]'
p164
sS'adapter'
p165
S'<pydal.adapters.sqlite.SQLiteAdapter object>'
p166
sS'attributes'
p167
S"{'next': 'show1/[data]'}"
p168
sS'self'
p169
S'<Set (post.id IS NOT NULL)>'
p170
ssg82
I2020
sg83
(dp171
I2016
S"                                    attributes.get('left', None),"
p172
sI2017
S"                                    attributes.get('orderby', None),"
p173
sI2018
S"                                    attributes.get('groupby', None))"
p174
sI2019
S'        fields = adapter.expand_all(fields, tablenames)'
p175
sI2020
S'        return adapter.select(self.query, fields, attributes)'
p176
sI2021
S''
sI2022
S'    def iterselect(self, *fields, **attributes):'
p177
sI2023
S'        adapter = self.db._adapter'
p178
sI2024
S'        tablenames = adapter.tables(self.query,'
p179
sI2015
S"                                    attributes.get('join', None),"
p180
ssg95
S"(self=<Set (post.id IS NOT NULL)>, *fields=[<pydal.objects.Field object>, <pydal.objects.Field object>, <pydal.objects.Field object>, <pydal.objects.Field object>, <pydal.objects.Field object>], **attributes={'next': 'show1/[data]'})"
p181
sg97
S'select'
p182
sa(dp183
g74
S'/home/anam786/itws/project/web2py/gluon/packages/dal/pydal/adapters/sqlite.py'
p184
sg76
(dp185
S'fields'
p186
S'[<pydal.objects.Field object>, <pydal.objects.Field object>, <pydal.objects.Field object>, <pydal.objects.Field object>, <pydal.objects.Field object>]'
p187
sS'self'
p188
S'<pydal.adapters.sqlite.SQLiteAdapter object>'
p189
sS').select'
p190
S'<bound method SQLiteAdapter.select of <pydal.adapters.sqlite.SQLiteAdapter object>>'
p191
sS'attributes'
p192
S"{'next': 'show1/[data]'}"
p193
sS'global SQLiteAdapter'
p194
S"<class 'pydal.adapters.sqlite.SQLiteAdapter'>"
p195
sS'query'
p196
S'<Query (post.id IS NOT NULL)>'
p197
sS'builtinsuper'
p198
S"<type 'super'>"
p199
ssg82
I123
sg83
(dp200
I118
S'        Note that the entire database, rather than one record, is locked'
p201
sI119
S'        (it will be locked eventually anyway by the following UPDATE).'
p202
sI120
S'        """'
p203
sI121
S"        if attributes.get('for_update', False) and not 'cache' in attributes:"
p204
sI122
S"            self.execute('BEGIN IMMEDIATE TRANSACTION;')"
p205
sI123
S'        return super(SQLiteAdapter, self).select(query, fields, attributes)'
p206
sI124
S''
sI125
S''
sI126
S'SPATIALLIBS = {'
p207
sI127
S"    'Windows':'mod_spatialite.dll',"
p208
ssg95
S"(self=<pydal.adapters.sqlite.SQLiteAdapter object>, query=<Query (post.id IS NOT NULL)>, fields=[<pydal.objects.Field object>, <pydal.objects.Field object>, <pydal.objects.Field object>, <pydal.objects.Field object>, <pydal.objects.Field object>], attributes={'next': 'show1/[data]'})"
p209
sg97
g182
sa(dp210
g74
S'/home/anam786/itws/project/web2py/gluon/packages/dal/pydal/adapters/base.py'
p211
sg76
(dp212
S'self._select'
p213
S'<bound method SQLiteAdapter._select of <pydal.adapters.sqlite.SQLiteAdapter object>>'
p214
sS'fields'
p215
S'[<pydal.objects.Field object>, <pydal.objects.Field object>, <pydal.objects.Field object>, <pydal.objects.Field object>, <pydal.objects.Field object>]'
p216
sS'self'
p217
S'<pydal.adapters.sqlite.SQLiteAdapter object>'
p218
sS'sql'
p219
g118
sS'query'
p220
S'<Query (post.id IS NOT NULL)>'
p221
sS'attributes'
p222
S"{'next': 'show1/[data]'}"
p223
ssg82
I1283
sg83
(dp224
I1280
S'        """'
p225
sI1281
S'        Always returns a Rows object, possibly empty.'
p226
sI1282
S'        """'
p227
sI1283
S'        sql = self._select(query, fields, attributes)'
p228
sI1284
S"        cache = attributes.get('cache', None)"
p229
sI1285
S"        if cache and attributes.get('cacheable',False):"
p230
sI1286
S"            del attributes['cache']"
p231
sI1287
S'            (cache_model, time_expire) = cache'
p232
sI1278
S''
sI1279
S'    def select(self, query, fields, attributes):'
p233
ssg95
S"(self=<pydal.adapters.sqlite.SQLiteAdapter object>, query=<Query (post.id IS NOT NULL)>, fields=[<pydal.objects.Field object>, <pydal.objects.Field object>, <pydal.objects.Field object>, <pydal.objects.Field object>, <pydal.objects.Field object>], attributes={'next': 'show1/[data]'})"
p234
sg97
g182
sa(dp235
g74
S'/home/anam786/itws/project/web2py/gluon/packages/dal/pydal/adapters/base.py'
p236
sg76
(dp237
S'builtinSyntaxError'
p238
S"<type 'exceptions.SyntaxError'>"
p239
sS'key'
p240
S"'next'"
p241
ssg82
I1091
sg83
(dp242
I1088
S'    def _select(self, query, fields, attributes):'
p243
sI1089
S'        tables = self.tables'
p244
sI1090
S'        for key in set(attributes.keys())-SELECT_ARGS:'
p245
sI1091
S"            raise SyntaxError('invalid select attribute: %s' % key)"
p246
sI1092
S'        args_get = attributes.get'
p247
sI1093
S'        tablenames = tables(query)'
p248
sI1094
S'        tablenames_for_common_filters = tablenames'
p249
sI1095
S"        outer_scoped = [t._tablename for t in args_get('outer_scoped',[])]"
p250
sI1086
S'        return new_fields'
p251
sI1087
S''
ssg95
S"(self=<pydal.adapters.sqlite.SQLiteAdapter object>, query=<Query (post.id IS NOT NULL)>, fields=[<pydal.objects.Field object>, <pydal.objects.Field object>, <pydal.objects.Field object>, <pydal.objects.Field object>, <pydal.objects.Field object>], attributes={'next': 'show1/[data]'})"
p252
sg97
S'_select'
p253
sasS'pyver'
p254
S'Python 2.7.10: /usr/bin/python (prefix: /usr)'
p255
sS'session'
p256
g69
(S'sm\t\x00\x00<div><table><tr><td style="font-weight:bold;vertical-align:top;">auth</td><td style="vertical-align:top;">:</td><td><div><table><tr><td style="font-weight:bold;vertical-align:top;">expiration</td><td style="vertical-align:top;">:</td><td><div>3600</div></td></tr><tr><td style="font-weight:bold;vertical-align:top;">hmac_key</td><td style="vertical-align:top;">:</td><td><div>5f0db3a8-f353-41b0-89a3-28b27ad249d4</div></td></tr><tr><td style="font-weight:bold;vertical-align:top;">last_visit</td><td style="vertical-align:top;">:</td><td><div>datetime.datetime(2016, 5, 3, 4, 32, 34, 674070)</div></td></tr><tr><td style="font-weight:bold;vertical-align:top;">remember_me</td><td style="vertical-align:top;">:</td><td><div>False</div></td></tr><tr><td style="font-weight:bold;vertical-align:top;">user</td><td style="vertical-align:top;">:</td><td><div><table><tr><td style="font-weight:bold;vertical-align:top;">email</td><td style="vertical-align:top;">:</td><td><div>anam_new@gmail.com</div></td></tr><tr><td style="font-weight:bold;vertical-align:top;">first_name</td><td style="vertical-align:top;">:</td><td><div>anam</div></td></tr><tr><td style="font-weight:bold;vertical-align:top;">id</td><td style="vertical-align:top;">:</td><td><div>7L</div></td></tr><tr><td style="font-weight:bold;vertical-align:top;">last_name</td><td style="vertical-align:top;">:</td><td><div>new</div></td></tr><tr><td style="font-weight:bold;vertical-align:top;">registration_id</td><td style="vertical-align:top;">:</td><td><div></div></td></tr><tr><td style="font-weight:bold;vertical-align:top;">registration_key</td><td style="vertical-align:top;">:</td><td><div></div></td></tr><tr><td style="font-weight:bold;vertical-align:top;">reset_password_key</td><td style="vertical-align:top;">:</td><td><div></div></td></tr><tr><td style="font-weight:bold;vertical-align:top;">username</td><td style="vertical-align:top;">:</td><td><div>anam_new</div></td></tr></table></div></td></tr><tr><td style="font-weight:bold;vertical-align:top;">user_groups</td><td style="vertical-align:top;">:</td><td><div><table><tr><td style="font-weight:bold;vertical-align:top;">7</td><td style="vertical-align:top;">:</td><td><div>user_7</div></td></tr></table></div></td></tr></table></div></td></tr><tr><td style="font-weight:bold;vertical-align:top;">flash</td><td style="vertical-align:top;">:</td><td><div>None</div></td></tr></table></div>'
tRp257
sS'etype'
p258
S"<type 'exceptions.SyntaxError'>"
p259
sS'date'
p260
S'Tue May  3 04:37:56 2016'
p261
sS'response'
p262
g69
(S'sg\x1f\x00\x00<div><table><tr><td style="font-weight:bold;vertical-align:top;">body</td><td style="vertical-align:top;">:</td><td><div>&lt;cStringIO.StringO object at 0x7f3925933378&gt;</div></td></tr><tr><td style="font-weight:bold;vertical-align:top;">cookies</td><td style="vertical-align:top;">:</td><td><div><table><tr><td style="font-weight:bold;vertical-align:top;">session_id_task1</td><td style="vertical-align:top;">:</td><td><div>127.0.0.1-432ad88b-d953-4a6f-a202-d4e88a3c867f<table><tr><td style="font-weight:bold;vertical-align:top;">comment</td><td style="vertical-align:top;">:</td><td><div></div></td></tr><tr><td style="font-weight:bold;vertical-align:top;">domain</td><td style="vertical-align:top;">:</td><td><div></div></td></tr><tr><td style="font-weight:bold;vertical-align:top;">expires</td><td style="vertical-align:top;">:</td><td><div></div></td></tr><tr><td style="font-weight:bold;vertical-align:top;">httponly</td><td style="vertical-align:top;">:</td><td><div></div></td></tr><tr><td style="font-weight:bold;vertical-align:top;">max-age</td><td style="vertical-align:top;">:</td><td><div></div></td></tr><tr><td style="font-weight:bold;vertical-align:top;">path</td><td style="vertical-align:top;">:</td><td><div>/</div></td></tr><tr><td style="font-weight:bold;vertical-align:top;">secure</td><td style="vertical-align:top;">:</td><td><div></div></td></tr><tr><td style="font-weight:bold;vertical-align:top;">version</td><td style="vertical-align:top;">:</td><td><div></div></td></tr></table></div></td></tr></table></div></td></tr><tr><td style="font-weight:bold;vertical-align:top;">delimiters</td><td style="vertical-align:top;">:</td><td><div><table><tr><td><div>{{</div></td></tr><tr><td><div>}}</div></td></tr></table></div></td></tr><tr><td style="font-weight:bold;vertical-align:top;">files</td><td style="vertical-align:top;">:</td><td><div><table></table></div></td></tr><tr><td style="font-weight:bold;vertical-align:top;">flash</td><td style="vertical-align:top;">:</td><td><div></div></td></tr><tr><td style="font-weight:bold;vertical-align:top;">form_label_separator</td><td style="vertical-align:top;">:</td><td><div></div></td></tr><tr><td style="font-weight:bold;vertical-align:top;">formstyle</td><td style="vertical-align:top;">:</td><td><div>bootstrap3_inline</div></td></tr><tr><td style="font-weight:bold;vertical-align:top;">generic_patterns</td><td style="vertical-align:top;">:</td><td><div><table><tr><td><div>*</div></td></tr></table></div></td></tr><tr><td style="font-weight:bold;vertical-align:top;">google_analytics_id</td><td style="vertical-align:top;">:</td><td><div>None</div></td></tr><tr><td style="font-weight:bold;vertical-align:top;">headers</td><td style="vertical-align:top;">:</td><td><div><table><tr><td style="font-weight:bold;vertical-align:top;">X-Powered-By</td><td style="vertical-align:top;">:</td><td><div>web2py</div></td></tr></table></div></td></tr><tr><td style="font-weight:bold;vertical-align:top;">logo</td><td style="vertical-align:top;">:</td><td><div><a class="navbar-brand" href="http://127.0.0.1:8000/Task/default/incomplete" id="web2py-logo"><b>Task<span>2</span>do</b>&trade;&nbsp;</a></div></td></tr><tr><td style="font-weight:bold;vertical-align:top;">menu</td><td style="vertical-align:top;">:</td><td><div><table><tr><td><div><table><tr><td><div>Home</div></td></tr><tr><td><div>False</div></td></tr><tr><td><div>/Task1/default/home</div></td></tr></table></div></td></tr><tr><td><div><table><tr><td><div>Upload_Tasks</div></td></tr><tr><td><div>False</div></td></tr><tr><td><div>/Task1/default/task</div></td></tr></table></div></td></tr><tr><td><div><table><tr><td><div>Your_tasks</div></td></tr><tr><td><div>False</div></td></tr><tr><td><div>/Task1/default/incomplete</div></td></tr></table></div></td></tr><tr><td><div><table><tr><td><div>Search</div></td></tr><tr><td><div>False</div></td></tr><tr><td><div>/Task1/default/search</div></td></tr></table></div></td></tr></table></div></td></tr><tr><td style="font-weight:bold;vertical-align:top;">meta</td><td style="vertical-align:top;">:</td><td><div><table><tr><td style="font-weight:bold;vertical-align:top;">author</td><td style="vertical-align:top;">:</td><td><div>Your Name &lt;you@example.com&gt;</div></td></tr><tr><td style="font-weight:bold;vertical-align:top;">description</td><td style="vertical-align:top;">:</td><td><div>a cool new app</div></td></tr><tr><td style="font-weight:bold;vertical-align:top;">generator</td><td style="vertical-align:top;">:</td><td><div>Web2py Web Framework</div></td></tr><tr><td style="font-weight:bold;vertical-align:top;">keywords</td><td style="vertical-align:top;">:</td><td><div><table><tr><td><div>web2py</div></td></tr><tr><td><div>python</div></td></tr><tr><td><div>framework</div></td></tr></table></div></td></tr></table></div></td></tr><tr><td style="font-weight:bold;vertical-align:top;">models_to_run</td><td style="vertical-align:top;">:</td><td><div><table><tr><td><div>^\\w+\\.py$</div></td></tr><tr><td><div>^default/\\w+\\.py$</div></td></tr><tr><td><div>^default/show1/\\w+\\.py$</div></td></tr></table></div></td></tr><tr><td style="font-weight:bold;vertical-align:top;">postprocessing</td><td style="vertical-align:top;">:</td><td><div><table></table></div></td></tr><tr><td style="font-weight:bold;vertical-align:top;">session_client</td><td style="vertical-align:top;">:</td><td><div>127.0.0.1</div></td></tr><tr><td style="font-weight:bold;vertical-align:top;">session_cookie_compression_level</td><td style="vertical-align:top;">:</td><td><div>None</div></td></tr><tr><td style="font-weight:bold;vertical-align:top;">session_cookie_expires</td><td style="vertical-align:top;">:</td><td><div>None</div></td></tr><tr><td style="font-weight:bold;vertical-align:top;">session_data_name</td><td style="vertical-align:top;">:</td><td><div>session_data_task1</div></td></tr><tr><td style="font-weight:bold;vertical-align:top;">session_file</td><td style="vertical-align:top;">:</td><td><div>&lt;open file &#x27;/home/anam786/itws/project/web2py/applications/Task1/sessions/13b/197/127.0.0.1-432ad88b-d953-4a6f-a202-d4e88a3c867f&#x27;, mode &#x27;rb+&#x27; at 0x7f38e2c0fa50&gt;</div></td></tr><tr><td style="font-weight:bold;vertical-align:top;">session_filename</td><td style="vertical-align:top;">:</td><td><div>/home/anam786/itws/project/web2py/applications/Task1/sessions/127.0.0.1-432ad88b-d953-4a6f-a202-d4e88a3c867f</div></td></tr><tr><td style="font-weight:bold;vertical-align:top;">session_hash</td><td style="vertical-align:top;">:</td><td><div>7526df04a8cf7ac7c7bf503432f96ab0</div></td></tr><tr><td style="font-weight:bold;vertical-align:top;">session_id</td><td style="vertical-align:top;">:</td><td><div>127.0.0.1-432ad88b-d953-4a6f-a202-d4e88a3c867f</div></td></tr><tr><td style="font-weight:bold;vertical-align:top;">session_id_name</td><td style="vertical-align:top;">:</td><td><div>session_id_task1</div></td></tr><tr><td style="font-weight:bold;vertical-align:top;">session_locked</td><td style="vertical-align:top;">:</td><td><div>True</div></td></tr><tr><td style="font-weight:bold;vertical-align:top;">session_masterapp</td><td style="vertical-align:top;">:</td><td><div>Task1</div></td></tr><tr><td style="font-weight:bold;vertical-align:top;">session_new</td><td style="vertical-align:top;">:</td><td><div>False</div></td></tr><tr><td style="font-weight:bold;vertical-align:top;">session_storage_type</td><td style="vertical-align:top;">:</td><td><div>file</div></td></tr><tr><td style="font-weight:bold;vertical-align:top;">status</td><td style="vertical-align:top;">:</td><td><div>200</div></td></tr><tr><td style="font-weight:bold;vertical-align:top;">subtitle</td><td style="vertical-align:top;">:</td><td><div></div></td></tr><tr><td style="font-weight:bold;vertical-align:top;">title</td><td style="vertical-align:top;">:</td><td><div>Task1</div></td></tr><tr><td style="font-weight:bold;vertical-align:top;">view</td><td style="vertical-align:top;">:</td><td><div>default/show1.html</div></td></tr></table></div>'
tRp263
sS'locals'
p264
(dp265
S'tables'
p266
S'<bound method SQLiteAdapter.tables of <pydal.adapters.sqlite.SQLiteAdapter object>>'
p267
sS'fields'
p268
S'[<pydal.objects.Field object>, <pydal.objects.Field object>, <pydal.objects.Field object>, <pydal.objects.Field object>, <pydal.objects.Field object>]'
p269
sS'self'
p270
S'<pydal.adapters.sqlite.SQLiteAdapter object>'
p271
sS'key'
p272
S"'next'"
p273
sS'query'
p274
S'<Query (post.id IS NOT NULL)>'
p275
sS'attributes'
p276
S"{'next': 'show1/[data]'}"
p277
sssS'traceback'
p278
S'Traceback (most recent call last):\n  File "/home/anam786/itws/project/web2py/gluon/restricted.py", line 227, in restricted\n    exec ccode in environment\n  File "/home/anam786/itws/project/web2py/applications/Task1/controllers/default.py", line 237, in <module>\n  File "/home/anam786/itws/project/web2py/gluon/globals.py", line 417, in <lambda>\n    self._caller = lambda f: f()\n  File "/home/anam786/itws/project/web2py/applications/Task1/controllers/default.py", line 29, in show1\n    comments = db(db.post).select(next=\'show1/[data]\')\n  File "/home/anam786/itws/project/web2py/gluon/packages/dal/pydal/objects.py", line 2020, in select\n    return adapter.select(self.query, fields, attributes)\n  File "/home/anam786/itws/project/web2py/gluon/packages/dal/pydal/adapters/sqlite.py", line 123, in select\n    return super(SQLiteAdapter, self).select(query, fields, attributes)\n  File "/home/anam786/itws/project/web2py/gluon/packages/dal/pydal/adapters/base.py", line 1283, in select\n    sql = self._select(query, fields, attributes)\n  File "/home/anam786/itws/project/web2py/gluon/packages/dal/pydal/adapters/base.py", line 1091, in _select\n    raise SyntaxError(\'invalid select attribute: %s\' % key)\nSyntaxError: invalid select attribute: next\n'
p279
s.